target datalayout = "e-m:e-p270:32:32-p271:32:32-p272:64:64-i64:64-i128:128-f80:128-n8:16:32:64-S128"
target triple = "x86_64-pc-linux-gnu"

%"struct.cv::detail::CheckContext" = type { ptr, ptr, i32, i32, ptr, ptr, ptr }

@.str.9 = private unnamed_addr constant [5 x i8] c"%d%c\00", align 1
@_ZZN2cv2fsL10typeSymbolEiE15__cv_check__184 = internal constant %"struct.cv::detail::CheckContext" { ptr @.str.121, ptr @.str.11, i32 184, i32 0, ptr @.str, ptr @.str.122, ptr @.str.123 }, align 8
@_ZN2cv2fsL7symbolsE = internal constant [9 x i8] c"ucwsifdh\00", align 1

; Function Attrs: mustprogress uwtable
define internal noundef signext i8 @_ZN2cv2fsL10typeSymbolEi(i32 noundef %0) #4 {
  %2 = alloca i32, align 4
  store i32 %0, ptr %2, align 4, !tbaa !11
  br label %3

3:                                                ; preds = %1
  %4 = load i32, ptr %2, align 4, !tbaa !11
  %5 = icmp sge i32 %4, 0
  br i1 %5, label %6, label %10

6:                                                ; preds = %3
  %7 = load i32, ptr %2, align 4, !tbaa !11
  %8 = icmp sle i32 %7, 7
  br i1 %8, label %9, label %10

9:                                                ; preds = %6
  br label %12

10:                                               ; preds = %6, %3
  %11 = load i32, ptr %2, align 4, !tbaa !11
  call void @_ZN2cv6detail21check_failed_MatDepthEiRKNS0_12CheckContextE(i32 noundef %11, ptr noundef nonnull align 8 dereferenceable(48) @_ZZN2cv2fsL10typeSymbolEiE15__cv_check__184) #25
  unreachable

12:                                               ; preds = %9
  br label %13

13:                                               ; preds = %12
  %14 = load i32, ptr %2, align 4, !tbaa !11
  %15 = sext i32 %14 to i64
  %16 = getelementptr inbounds [9 x i8], ptr @_ZN2cv2fsL7symbolsE, i64 0, i64 %15
  %17 = load i8, ptr %16, align 1, !tbaa !10
  ret i8 %17
}

; Function Attrs: mustprogress uwtable
define hidden noundef ptr @_ZN2cv2fs12encodeFormatEiPcm(i32 noundef %0, ptr noundef %1, i64 noundef %2) #4 {
  %4 = alloca i32, align 4
  %5 = alloca ptr, align 8
  %6 = alloca i64, align 8
  %7 = alloca i32, align 4
  %8 = alloca i8, align 1
  store i32 %0, ptr %4, align 4, !tbaa !11
  store ptr %1, ptr %5, align 8, !tbaa !3
  store i64 %2, ptr %6, align 8, !tbaa !8
  call void @llvm.lifetime.start.p0(i64 4, ptr %7) #3
  %9 = load i32, ptr %4, align 4, !tbaa !11
  %10 = icmp eq i32 %9, 56
  br i1 %10, label %11, label %12

11:                                               ; preds = %3
  br label %17

12:                                               ; preds = %3
  %13 = load i32, ptr %4, align 4, !tbaa !11
  %14 = and i32 %13, 4088
  %15 = ashr i32 %14, 3
  %16 = add nsw i32 %15, 1
  br label %17

17:                                               ; preds = %12, %11
  %18 = phi i32 [ 1, %11 ], [ %16, %12 ]
  store i32 %18, ptr %7, align 4, !tbaa !11
  call void @llvm.lifetime.start.p0(i64 1, ptr %8) #3
  %19 = load i32, ptr %4, align 4, !tbaa !11
  %20 = icmp eq i32 %19, 56
  br i1 %20, label %21, label %22

21:                                               ; preds = %17
  br label %26

22:                                               ; preds = %17
  %23 = load i32, ptr %4, align 4, !tbaa !11
  %24 = and i32 %23, 7
  %25 = call noundef signext i8 @_ZN2cv2fsL10typeSymbolEi(i32 noundef %24)
  br label %26

26:                                               ; preds = %22, %21
  %27 = phi i8 [ 114, %21 ], [ %25, %22 ]
  store i8 %27, ptr %8, align 1, !tbaa !10
  %28 = load ptr, ptr %5, align 8, !tbaa !3
  %29 = load i64, ptr %6, align 8, !tbaa !8
  %30 = load i32, ptr %7, align 4, !tbaa !11
  %31 = load i8, ptr %8, align 1, !tbaa !10
  %32 = sext i8 %31 to i32
  %33 = call i32 (ptr, i64, ptr, ...) @snprintf(ptr noundef %28, i64 noundef %29, ptr noundef @.str.9, i32 noundef %30, i32 noundef %32) #3
  %34 = load ptr, ptr %5, align 8, !tbaa !3
  %35 = load i32, ptr %7, align 4, !tbaa !11
  %36 = icmp eq i32 %35, 1
  %37 = select i1 %36, i32 1, i32 0
  %38 = sext i32 %37 to i64
  %39 = getelementptr inbounds i8, ptr %34, i64 %38
  call void @llvm.lifetime.end.p0(i64 1, ptr %8) #3
  call void @llvm.lifetime.end.p0(i64 4, ptr %7) #3
  ret ptr %39
}