; Function Attrs: mustprogress nofree nounwind uwtable
define hidden noundef ptr @_ZN2cv2fs12encodeFormatEiPcm(i32 noundef %0, ptr noundef writeonly %1, i64 noundef %2) local_unnamed_addr #12 {
  %4 = icmp eq i32 %0, 56
  br i1 %4, label %14, label %5

5:                                                ; preds = %3
  %6 = lshr i32 %0, 3
  %7 = and i32 %6, 511
  %8 = add nuw nsw i32 %7, 1
  %9 = and i32 %0, 7
  %10 = zext nneg i32 %9 to i64
  %11 = getelementptr inbounds nuw [9 x i8], ptr @_ZN2cv2fsL7symbolsE, i64 0, i64 %10
  %12 = load i8, ptr %11, align 1, !tbaa !5
  %13 = sext i8 %12 to i32
  br label %14

14:                                               ; preds = %3, %5
  %15 = phi i32 [ 1, %3 ], [ %8, %5 ]
  %16 = phi i32 [ 114, %3 ], [ %13, %5 ]
  %17 = tail call i32 (ptr, i64, ptr, ...) @snprintf(ptr noundef %1, i64 noundef %2, ptr noundef nonnull @.str.9, i32 noundef %15, i32 noundef %16) #41
  %18 = icmp eq i32 %15, 1
  %19 = zext i1 %18 to i64
  %20 = getelementptr inbounds nuw i8, ptr %1, i64 %19
  ret ptr %20
}